target datalayout = "e-m:e-p270:32:32-p271:32:32-p272:64:64-i64:64-i128:128-f80:128-n8:16:32:64-S128"
target triple = "x86_64-pc-linux-gnu"

%struct.dict = type { ptr, [2 x ptr], [2 x i64], i64, i16, [2 x i8], i16, [0 x ptr] }

; Function Attrs: nounwind uwtable
define dso_local i64 @dictFingerprint(ptr noundef %0) #0 {
  %2 = alloca ptr, align 8
  %3 = alloca [6 x i64], align 16
  %4 = alloca i64, align 8
  %5 = alloca i32, align 4
  store ptr %0, ptr %2, align 8, !tbaa !18
  call void @llvm.lifetime.start.p0(i64 48, ptr %3) #14
  call void @llvm.lifetime.start.p0(i64 8, ptr %4) #14
  store i64 0, ptr %4, align 8, !tbaa !75
  call void @llvm.lifetime.start.p0(i64 4, ptr %5) #14
  %6 = load ptr, ptr %2, align 8, !tbaa !18
  %7 = getelementptr inbounds nuw %struct.dict, ptr %6, i32 0, i32 1
  %8 = getelementptr inbounds [2 x ptr], ptr %7, i64 0, i64 0
  %9 = load ptr, ptr %8, align 8, !tbaa !30
  %10 = ptrtoint ptr %9 to i64
  %11 = getelementptr inbounds [6 x i64], ptr %3, i64 0, i64 0
  store i64 %10, ptr %11, align 16, !tbaa !75
  %12 = load ptr, ptr %2, align 8, !tbaa !18
  %13 = getelementptr inbounds nuw %struct.dict, ptr %12, i32 0, i32 5
  %14 = getelementptr inbounds [2 x i8], ptr %13, i64 0, i64 0
  %15 = load i8, ptr %14, align 2, !tbaa !25
  %16 = sext i8 %15 to i64
  %17 = getelementptr inbounds [6 x i64], ptr %3, i64 0, i64 1
  store i64 %16, ptr %17, align 8, !tbaa !75
  %18 = load ptr, ptr %2, align 8, !tbaa !18
  %19 = getelementptr inbounds nuw %struct.dict, ptr %18, i32 0, i32 2
  %20 = getelementptr inbounds [2 x i64], ptr %19, i64 0, i64 0
  %21 = load i64, ptr %20, align 8, !tbaa !11
  %22 = getelementptr inbounds [6 x i64], ptr %3, i64 0, i64 2
  store i64 %21, ptr %22, align 16, !tbaa !75
  %23 = load ptr, ptr %2, align 8, !tbaa !18
  %24 = getelementptr inbounds nuw %struct.dict, ptr %23, i32 0, i32 1
  %25 = getelementptr inbounds [2 x ptr], ptr %24, i64 0, i64 1
  %26 = load ptr, ptr %25, align 8, !tbaa !30
  %27 = ptrtoint ptr %26 to i64
  %28 = getelementptr inbounds [6 x i64], ptr %3, i64 0, i64 3
  store i64 %27, ptr %28, align 8, !tbaa !75
  %29 = load ptr, ptr %2, align 8, !tbaa !18
  %30 = getelementptr inbounds nuw %struct.dict, ptr %29, i32 0, i32 5
  %31 = getelementptr inbounds [2 x i8], ptr %30, i64 0, i64 1
  %32 = load i8, ptr %31, align 1, !tbaa !25
  %33 = sext i8 %32 to i64
  %34 = getelementptr inbounds [6 x i64], ptr %3, i64 0, i64 4
  store i64 %33, ptr %34, align 16, !tbaa !75
  %35 = load ptr, ptr %2, align 8, !tbaa !18
  %36 = getelementptr inbounds nuw %struct.dict, ptr %35, i32 0, i32 2
  %37 = getelementptr inbounds [2 x i64], ptr %36, i64 0, i64 1
  %38 = load i64, ptr %37, align 8, !tbaa !11
  %39 = getelementptr inbounds [6 x i64], ptr %3, i64 0, i64 5
  store i64 %38, ptr %39, align 8, !tbaa !75
  store i32 0, ptr %5, align 4, !tbaa !29
  br label %40

40:                                               ; preds = %85, %1
  %41 = load i32, ptr %5, align 4, !tbaa !29
  %42 = icmp slt i32 %41, 6
  br i1 %42, label %43, label %88

43:                                               ; preds = %40
  %44 = load i32, ptr %5, align 4, !tbaa !29
  %45 = sext i32 %44 to i64
  %46 = getelementptr inbounds [6 x i64], ptr %3, i64 0, i64 %45
  %47 = load i64, ptr %46, align 8, !tbaa !75
  %48 = load i64, ptr %4, align 8, !tbaa !75
  %49 = add i64 %48, %47
  store i64 %49, ptr %4, align 8, !tbaa !75
  %50 = load i64, ptr %4, align 8, !tbaa !75
  %51 = xor i64 %50, -1
  %52 = load i64, ptr %4, align 8, !tbaa !75
  %53 = shl i64 %52, 21
  %54 = add i64 %51, %53
  store i64 %54, ptr %4, align 8, !tbaa !75
  %55 = load i64, ptr %4, align 8, !tbaa !75
  %56 = load i64, ptr %4, align 8, !tbaa !75
  %57 = lshr i64 %56, 24
  %58 = xor i64 %55, %57
  store i64 %58, ptr %4, align 8, !tbaa !75
  %59 = load i64, ptr %4, align 8, !tbaa !75
  %60 = load i64, ptr %4, align 8, !tbaa !75
  %61 = shl i64 %60, 3
  %62 = add i64 %59, %61
  %63 = load i64, ptr %4, align 8, !tbaa !75
  %64 = shl i64 %63, 8
  %65 = add i64 %62, %64
  store i64 %65, ptr %4, align 8, !tbaa !75
  %66 = load i64, ptr %4, align 8, !tbaa !75
  %67 = load i64, ptr %4, align 8, !tbaa !75
  %68 = lshr i64 %67, 14
  %69 = xor i64 %66, %68
  store i64 %69, ptr %4, align 8, !tbaa !75
  %70 = load i64, ptr %4, align 8, !tbaa !75
  %71 = load i64, ptr %4, align 8, !tbaa !75
  %72 = shl i64 %71, 2
  %73 = add i64 %70, %72
  %74 = load i64, ptr %4, align 8, !tbaa !75
  %75 = shl i64 %74, 4
  %76 = add i64 %73, %75
  store i64 %76, ptr %4, align 8, !tbaa !75
  %77 = load i64, ptr %4, align 8, !tbaa !75
  %78 = load i64, ptr %4, align 8, !tbaa !75
  %79 = lshr i64 %78, 28
  %80 = xor i64 %77, %79
  store i64 %80, ptr %4, align 8, !tbaa !75
  %81 = load i64, ptr %4, align 8, !tbaa !75
  %82 = load i64, ptr %4, align 8, !tbaa !75
  %83 = shl i64 %82, 31
  %84 = add i64 %81, %83
  store i64 %84, ptr %4, align 8, !tbaa !75
  br label %85

85:                                               ; preds = %43
  %86 = load i32, ptr %5, align 4, !tbaa !29
  %87 = add nsw i32 %86, 1
  store i32 %87, ptr %5, align 4, !tbaa !29
  br label %40, !llvm.loop !77

88:                                               ; preds = %40
  %89 = load i64, ptr %4, align 8, !tbaa !75
  call void @llvm.lifetime.end.p0(i64 4, ptr %5) #14
  call void @llvm.lifetime.end.p0(i64 8, ptr %4) #14
  call void @llvm.lifetime.end.p0(i64 48, ptr %3) #14
  ret i64 %89
}