; Function Attrs: nofree norecurse nosync nounwind memory(argmem: read) uwtable
define dso_local i64 @dictFingerprint(ptr noundef readonly captures(none) %0) local_unnamed_addr #15 {
  %2 = alloca [6 x i64], align 16
  call void @llvm.lifetime.start.p0(i64 48, ptr nonnull %2) #25
  %3 = getelementptr inbounds nuw i8, ptr %0, i64 8
  %4 = load ptr, ptr %3, align 8, !tbaa !11
  %5 = ptrtoint ptr %4 to i64
  store i64 %5, ptr %2, align 16, !tbaa !65
  %6 = getelementptr inbounds nuw i8, ptr %0, i64 50
  %7 = load i8, ptr %6, align 2, !tbaa !13
  %8 = sext i8 %7 to i64
  %9 = getelementptr inbounds nuw i8, ptr %2, i64 8
  store i64 %8, ptr %9, align 8, !tbaa !65
  %10 = getelementptr inbounds nuw i8, ptr %0, i64 24
  %11 = load i64, ptr %10, align 8, !tbaa !14
  %12 = getelementptr inbounds nuw i8, ptr %2, i64 16
  store i64 %11, ptr %12, align 16, !tbaa !65
  %13 = getelementptr inbounds nuw i8, ptr %0, i64 16
  %14 = load ptr, ptr %13, align 8, !tbaa !11
  %15 = ptrtoint ptr %14 to i64
  %16 = getelementptr inbounds nuw i8, ptr %2, i64 24
  store i64 %15, ptr %16, align 8, !tbaa !65
  %17 = getelementptr inbounds nuw i8, ptr %0, i64 51
  %18 = load i8, ptr %17, align 1, !tbaa !13
  %19 = sext i8 %18 to i64
  %20 = getelementptr inbounds nuw i8, ptr %2, i64 32
  store i64 %19, ptr %20, align 16, !tbaa !65
  %21 = getelementptr inbounds nuw i8, ptr %0, i64 32
  %22 = load i64, ptr %21, align 8, !tbaa !14
  %23 = getelementptr inbounds nuw i8, ptr %2, i64 40
  store i64 %22, ptr %23, align 8, !tbaa !65
  br label %24

24:                                               ; preds = %1, %24
  %indvars.iv = phi i64 [ 0, %1 ], [ %indvars.iv.next, %24 ]
  %.02627 = phi i64 [ 0, %1 ], [ %39, %24 ]
  %25 = getelementptr inbounds nuw [6 x i64], ptr %2, i64 0, i64 %indvars.iv
  %26 = load i64, ptr %25, align 8, !tbaa !65
  %27 = add i64 %26, %.02627
  %28 = xor i64 %27, -1
  %29 = shl i64 %27, 21
  %30 = add i64 %29, %28
  %31 = lshr i64 %30, 24
  %32 = xor i64 %31, %30
  %33 = mul i64 %32, 265
  %34 = lshr i64 %33, 14
  %35 = xor i64 %34, %33
  %36 = mul i64 %35, 21
  %37 = lshr i64 %36, 28
  %38 = xor i64 %37, %36
  %39 = mul i64 %38, 2147483649
  %indvars.iv.next = add nuw nsw i64 %indvars.iv, 1
  %exitcond.not = icmp eq i64 %indvars.iv.next, 6
  br i1 %exitcond.not, label %40, label %24, !llvm.loop !67

40:                                               ; preds = %24
  call void @llvm.lifetime.end.p0(i64 48, ptr nonnull %2) #25
  ret i64 %39
}